; ModuleID = '17/99.c'
source_filename = "17/99.c"
target datalayout = "e-m:e-p270:32:32-p271:32:32-p272:64:64-i64:64-f80:128-n8:16:32:64-S128"
target triple = "x86_64-pc-linux-gnu"

@.str = private unnamed_addr constant [3 x i8] c"%s\00", align 1
@.str.1 = private unnamed_addr constant [2 x i8] c"$\00", align 1
@.str.2 = private unnamed_addr constant [2 x i8] c"?\00", align 1
@.str.3 = private unnamed_addr constant [2 x i8] c" \00", align 1
@.str.4 = private unnamed_addr constant [2 x i8] c"\0A\00", align 1

; Function Attrs: noinline nounwind uwtable
define dso_local i32 @main() #0 {
  %1 = alloca i32, align 4
  %2 = alloca i32, align 4
  %3 = alloca i32, align 4
  %4 = alloca i32, align 4
  %5 = alloca i32, align 4
  %6 = alloca i32, align 4
  %7 = alloca i32, align 4
  %8 = alloca [101 x i32], align 16
  %9 = alloca [101 x i32], align 16
  %10 = alloca [101 x i32], align 16
  %11 = alloca [101 x i8], align 16
  store i32 0, i32* %1, align 4
  br label %12

12:                                               ; preds = %168, %0
  %13 = getelementptr inbounds [101 x i8], [101 x i8]* %11, i64 0, i64 0
  %14 = call i32 (i8*, ...) @__isoc99_scanf(i8* getelementptr inbounds ([3 x i8], [3 x i8]* @.str, i64 0, i64 0), i8* %13)
  %15 = icmp ne i32 %14, -1
  br i1 %15, label %16, label %170

16:                                               ; preds = %12
  %17 = getelementptr inbounds [101 x i8], [101 x i8]* %11, i64 0, i64 0
  %18 = call i64 @strlen(i8* %17) #3
  %19 = trunc i64 %18 to i32
  store i32 %19, i32* %7, align 4
  store i32 0, i32* %2, align 4
  br label %20

20:                                               ; preds = %52, %16
  %21 = load i32, i32* %2, align 4
  %22 = load i32, i32* %7, align 4
  %23 = icmp slt i32 %21, %22
  br i1 %23, label %24, label %55

24:                                               ; preds = %20
  %25 = load i32, i32* %2, align 4
  %26 = sext i32 %25 to i64
  %27 = getelementptr inbounds [101 x i8], [101 x i8]* %11, i64 0, i64 %26
  %28 = load i8, i8* %27, align 1
  %29 = sext i8 %28 to i32
  %30 = icmp eq i32 %29, 40
  br i1 %30, label %31, label %35

31:                                               ; preds = %24
  %32 = load i32, i32* %2, align 4
  %33 = sext i32 %32 to i64
  %34 = getelementptr inbounds [101 x i32], [101 x i32]* %8, i64 0, i64 %33
  store i32 -1, i32* %34, align 4
  br label %51

35:                                               ; preds = %24
  %36 = load i32, i32* %2, align 4
  %37 = sext i32 %36 to i64
  %38 = getelementptr inbounds [101 x i8], [101 x i8]* %11, i64 0, i64 %37
  %39 = load i8, i8* %38, align 1
  %40 = sext i8 %39 to i32
  %41 = icmp eq i32 %40, 41
  br i1 %41, label %42, label %46

42:                                               ; preds = %35
  %43 = load i32, i32* %2, align 4
  %44 = sext i32 %43 to i64
  %45 = getelementptr inbounds [101 x i32], [101 x i32]* %8, i64 0, i64 %44
  store i32 1, i32* %45, align 4
  br label %50

46:                                               ; preds = %35
  %47 = load i32, i32* %2, align 4
  %48 = sext i32 %47 to i64
  %49 = getelementptr inbounds [101 x i32], [101 x i32]* %8, i64 0, i64 %48
  store i32 0, i32* %49, align 4
  br label %50

50:                                               ; preds = %46, %42
  br label %51

51:                                               ; preds = %50, %31
  br label %52

52:                                               ; preds = %51
  %53 = load i32, i32* %2, align 4
  %54 = add nsw i32 %53, 1
  store i32 %54, i32* %2, align 4
  br label %20

55:                                               ; preds = %20
  store i32 0, i32* %4, align 4
  store i32 0, i32* %5, align 4
  store i32 0, i32* %2, align 4
  br label %56

56:                                               ; preds = %87, %55
  %57 = load i32, i32* %2, align 4
  %58 = load i32, i32* %7, align 4
  %59 = icmp slt i32 %57, %58
  br i1 %59, label %60, label %90

60:                                               ; preds = %56
  %61 = load i32, i32* %2, align 4
  %62 = sext i32 %61 to i64
  %63 = getelementptr inbounds [101 x i32], [101 x i32]* %8, i64 0, i64 %62
  %64 = load i32, i32* %63, align 4
  %65 = icmp eq i32 %64, -1
  br i1 %65, label %66, label %73

66:                                               ; preds = %60
  %67 = load i32, i32* %2, align 4
  %68 = load i32, i32* %4, align 4
  %69 = sext i32 %68 to i64
  %70 = getelementptr inbounds [101 x i32], [101 x i32]* %9, i64 0, i64 %69
  store i32 %67, i32* %70, align 4
  %71 = load i32, i32* %4, align 4
  %72 = add nsw i32 %71, 1
  store i32 %72, i32* %4, align 4
  br label %73

73:                                               ; preds = %66, %60
  %74 = load i32, i32* %2, align 4
  %75 = sext i32 %74 to i64
  %76 = getelementptr inbounds [101 x i32], [101 x i32]* %8, i64 0, i64 %75
  %77 = load i32, i32* %76, align 4
  %78 = icmp eq i32 %77, 1
  br i1 %78, label %79, label %86

79:                                               ; preds = %73
  %80 = load i32, i32* %2, align 4
  %81 = load i32, i32* %5, align 4
  %82 = sext i32 %81 to i64
  %83 = getelementptr inbounds [101 x i32], [101 x i32]* %10, i64 0, i64 %82
  store i32 %80, i32* %83, align 4
  %84 = load i32, i32* %5, align 4
  %85 = add nsw i32 %84, 1
  store i32 %85, i32* %5, align 4
  br label %86

86:                                               ; preds = %79, %73
  br label %87

87:                                               ; preds = %86
  %88 = load i32, i32* %2, align 4
  %89 = add nsw i32 %88, 1
  store i32 %89, i32* %2, align 4
  br label %56

90:                                               ; preds = %56
  %91 = load i32, i32* %4, align 4
  %92 = sub nsw i32 %91, 1
  store i32 %92, i32* %2, align 4
  br label %93

93:                                               ; preds = %135, %90
  %94 = load i32, i32* %2, align 4
  %95 = icmp sge i32 %94, 0
  br i1 %95, label %96, label %138

96:                                               ; preds = %93
  store i32 0, i32* %3, align 4
  br label %97

97:                                               ; preds = %131, %96
  %98 = load i32, i32* %3, align 4
  %99 = load i32, i32* %5, align 4
  %100 = icmp slt i32 %98, %99
  br i1 %100, label %101, label %134

101:                                              ; preds = %97
  %102 = load i32, i32* %3, align 4
  %103 = sext i32 %102 to i64
  %104 = getelementptr inbounds [101 x i32], [101 x i32]* %10, i64 0, i64 %103
  %105 = load i32, i32* %104, align 4
  %106 = load i32, i32* %2, align 4
  %107 = sext i32 %106 to i64
  %108 = getelementptr inbounds [101 x i32], [101 x i32]* %9, i64 0, i64 %107
  %109 = load i32, i32* %108, align 4
  %110 = icmp sgt i32 %105, %109
  br i1 %110, label %111, label %130

111:                                              ; preds = %101
  %112 = load i32, i32* %3, align 4
  %113 = sext i32 %112 to i64
  %114 = getelementptr inbounds [101 x i32], [101 x i32]* %10, i64 0, i64 %113
  %115 = load i32, i32* %114, align 4
  %116 = sext i32 %115 to i64
  %117 = getelementptr inbounds [101 x i32], [101 x i32]* %8, i64 0, i64 %116
  store i32 0, i32* %117, align 4
  %118 = load i32, i32* %2, align 4
  %119 = sext i32 %118 to i64
  %120 = getelementptr inbounds [101 x i32], [101 x i32]* %9, i64 0, i64 %119
  %121 = load i32, i32* %120, align 4
  %122 = sext i32 %121 to i64
  %123 = getelementptr inbounds [101 x i32], [101 x i32]* %8, i64 0, i64 %122
  store i32 0, i32* %123, align 4
  %124 = load i32, i32* %3, align 4
  %125 = sext i32 %124 to i64
  %126 = getelementptr inbounds [101 x i32], [101 x i32]* %10, i64 0, i64 %125
  store i32 0, i32* %126, align 4
  %127 = load i32, i32* %2, align 4
  %128 = sext i32 %127 to i64
  %129 = getelementptr inbounds [101 x i32], [101 x i32]* %9, i64 0, i64 %128
  store i32 0, i32* %129, align 4
  br label %134

130:                                              ; preds = %101
  br label %131

131:                                              ; preds = %130
  %132 = load i32, i32* %3, align 4
  %133 = add nsw i32 %132, 1
  store i32 %133, i32* %3, align 4
  br label %97

134:                                              ; preds = %111, %97
  br label %135

135:                                              ; preds = %134
  %136 = load i32, i32* %2, align 4
  %137 = add nsw i32 %136, -1
  store i32 %137, i32* %2, align 4
  br label %93

138:                                              ; preds = %93
  %139 = getelementptr inbounds [101 x i8], [101 x i8]* %11, i64 0, i64 0
  %140 = call i32 @puts(i8* %139)
  store i32 0, i32* %2, align 4
  br label %141

141:                                              ; preds = %165, %138
  %142 = load i32, i32* %2, align 4
  %143 = load i32, i32* %7, align 4
  %144 = icmp slt i32 %142, %143
  br i1 %144, label %145, label %168

145:                                              ; preds = %141
  %146 = load i32, i32* %2, align 4
  %147 = sext i32 %146 to i64
  %148 = getelementptr inbounds [101 x i32], [101 x i32]* %8, i64 0, i64 %147
  %149 = load i32, i32* %148, align 4
  %150 = icmp eq i32 %149, -1
  br i1 %150, label %151, label %153

151:                                              ; preds = %145
  %152 = call i32 (i8*, ...) @printf(i8* getelementptr inbounds ([2 x i8], [2 x i8]* @.str.1, i64 0, i64 0))
  br label %164

153:                                              ; preds = %145
  %154 = load i32, i32* %2, align 4
  %155 = sext i32 %154 to i64
  %156 = getelementptr inbounds [101 x i32], [101 x i32]* %8, i64 0, i64 %155
  %157 = load i32, i32* %156, align 4
  %158 = icmp eq i32 %157, 1
  br i1 %158, label %159, label %161

159:                                              ; preds = %153
  %160 = call i32 (i8*, ...) @printf(i8* getelementptr inbounds ([2 x i8], [2 x i8]* @.str.2, i64 0, i64 0))
  br label %163

161:                                              ; preds = %153
  %162 = call i32 (i8*, ...) @printf(i8* getelementptr inbounds ([2 x i8], [2 x i8]* @.str.3, i64 0, i64 0))
  br label %163

163:                                              ; preds = %161, %159
  br label %164

164:                                              ; preds = %163, %151
  br label %165

165:                                              ; preds = %164
  %166 = load i32, i32* %2, align 4
  %167 = add nsw i32 %166, 1
  store i32 %167, i32* %2, align 4
  br label %141

168:                                              ; preds = %141
  %169 = call i32 (i8*, ...) @printf(i8* getelementptr inbounds ([2 x i8], [2 x i8]* @.str.4, i64 0, i64 0))
  br label %12

170:                                              ; preds = %12
  ret i32 0
}

declare dso_local i32 @__isoc99_scanf(i8*, ...) #1

; Function Attrs: nounwind readonly
declare dso_local i64 @strlen(i8*) #2

declare dso_local i32 @puts(i8*) #1

declare dso_local i32 @printf(i8*, ...) #1


!llvm.module.flags = !{!0}
!llvm.ident = !{!1}

!0 = !{i32 1, !"wchar_size", i32 4}
!1 = !{!"clang version 10.0.0-4ubuntu1 "}
